target datalayout = "e-m:e-p270:32:32-p271:32:32-p272:64:64-i64:64-i128:128-f80:128-n8:16:32:64-S128"
target triple = "x86_64-pc-linux-gnu"

%struct.mbedtls_pk_context = type { ptr, ptr }
%struct.mbedtls_pk_debug_item = type { i32, ptr, ptr }
%struct.mbedtls_rsa_context = type { i32, i64, %struct.mbedtls_mpi, %struct.mbedtls_mpi, %struct.mbedtls_mpi, %struct.mbedtls_mpi, %struct.mbedtls_mpi, %struct.mbedtls_mpi, %struct.mbedtls_mpi, %struct.mbedtls_mpi, %struct.mbedtls_mpi, %struct.mbedtls_mpi, %struct.mbedtls_mpi, %struct.mbedtls_mpi, %struct.mbedtls_mpi, i32, i32 }
%struct.mbedtls_mpi = type { ptr, i16, i16 }

@.str.5 = private unnamed_addr constant [6 x i8] c"rsa.N\00", align 1
@.str.6 = private unnamed_addr constant [6 x i8] c"rsa.E\00", align 1

; Function Attrs: nounwind uwtable
define internal void @rsa_debug(ptr noundef %0, ptr noundef %1) #0 {
  %3 = alloca ptr, align 8
  %4 = alloca ptr, align 8
  %5 = alloca ptr, align 8
  store ptr %0, ptr %3, align 8, !tbaa !3
  store ptr %1, ptr %4, align 8, !tbaa !22
  call void @llvm.lifetime.start.p0(i64 8, ptr %5) #6
  %6 = load ptr, ptr %3, align 8, !tbaa !3
  %7 = getelementptr inbounds nuw %struct.mbedtls_pk_context, ptr %6, i32 0, i32 1
  %8 = load ptr, ptr %7, align 8, !tbaa !8
  store ptr %8, ptr %5, align 8, !tbaa !11
  %9 = load ptr, ptr %4, align 8, !tbaa !22
  %10 = getelementptr inbounds nuw %struct.mbedtls_pk_debug_item, ptr %9, i32 0, i32 0
  store i32 1, ptr %10, align 8, !tbaa !24
  %11 = load ptr, ptr %4, align 8, !tbaa !22
  %12 = getelementptr inbounds nuw %struct.mbedtls_pk_debug_item, ptr %11, i32 0, i32 1
  store ptr @.str.5, ptr %12, align 8, !tbaa !26
  %13 = load ptr, ptr %5, align 8, !tbaa !11
  %14 = getelementptr inbounds nuw %struct.mbedtls_rsa_context, ptr %13, i32 0, i32 2
  %15 = load ptr, ptr %4, align 8, !tbaa !22
  %16 = getelementptr inbounds nuw %struct.mbedtls_pk_debug_item, ptr %15, i32 0, i32 2
  store ptr %14, ptr %16, align 8, !tbaa !27
  %17 = load ptr, ptr %4, align 8, !tbaa !22
  %18 = getelementptr inbounds nuw %struct.mbedtls_pk_debug_item, ptr %17, i32 1
  store ptr %18, ptr %4, align 8, !tbaa !22
  %19 = load ptr, ptr %4, align 8, !tbaa !22
  %20 = getelementptr inbounds nuw %struct.mbedtls_pk_debug_item, ptr %19, i32 0, i32 0
  store i32 1, ptr %20, align 8, !tbaa !24
  %21 = load ptr, ptr %4, align 8, !tbaa !22
  %22 = getelementptr inbounds nuw %struct.mbedtls_pk_debug_item, ptr %21, i32 0, i32 1
  store ptr @.str.6, ptr %22, align 8, !tbaa !26
  %23 = load ptr, ptr %5, align 8, !tbaa !11
  %24 = getelementptr inbounds nuw %struct.mbedtls_rsa_context, ptr %23, i32 0, i32 3
  %25 = load ptr, ptr %4, align 8, !tbaa !22
  %26 = getelementptr inbounds nuw %struct.mbedtls_pk_debug_item, ptr %25, i32 0, i32 2
  store ptr %24, ptr %26, align 8, !tbaa !27
  call void @llvm.lifetime.end.p0(i64 8, ptr %5) #6
  ret void
}