; Function Attrs: mustprogress nofree norecurse nosync nounwind willreturn memory(argmem: readwrite) uwtable
define internal void @rsa_debug(ptr noundef readonly captures(none) %0, ptr noundef writeonly captures(none) initializes((0, 4), (8, 28), (32, 48)) %1) #2 {
  %3 = getelementptr inbounds nuw i8, ptr %0, i64 8
  %4 = load ptr, ptr %3, align 8, !tbaa !3
  store i32 1, ptr %1, align 8, !tbaa !11
  %5 = getelementptr inbounds nuw i8, ptr %1, i64 8
  store ptr @.str.5, ptr %5, align 8, !tbaa !15
  %6 = getelementptr inbounds nuw i8, ptr %4, i64 16
  %7 = getelementptr inbounds nuw i8, ptr %1, i64 16
  store ptr %6, ptr %7, align 8, !tbaa !16
  %8 = getelementptr inbounds nuw i8, ptr %1, i64 24
  store i32 1, ptr %8, align 8, !tbaa !11
  %9 = getelementptr inbounds nuw i8, ptr %1, i64 32
  store ptr @.str.6, ptr %9, align 8, !tbaa !15
  %10 = getelementptr inbounds nuw i8, ptr %4, i64 32
  %11 = getelementptr inbounds nuw i8, ptr %1, i64 40
  store ptr %10, ptr %11, align 8, !tbaa !16
  ret void
}